target datalayout = "e-m:e-p270:32:32-p271:32:32-p272:64:64-i64:64-i128:128-f80:128-n8:16:32:64-S128"
target triple = "x86_64-pc-linux-gnu"

%struct.GLNVGcontext = type { %struct.GLNVGshader, ptr, [2 x float], i32, i32, i32, i32, i32, i32, i32, i32, ptr, i32, i32, ptr, i32, i32, ptr, i32, i32, ptr, i32, i32, i32, i32, i32, i32, i32, %struct.GLNVGblend }
%struct.GLNVGshader = type { i32, i32, i32, [3 x i32] }
%struct.GLNVGblend = type { i32, i32, i32, i32 }
%struct.GLNVGtexture = type { i32, i32, i32, i32, i32, i32 }

; Function Attrs: mustprogress uwtable
define internal void @_ZL19glnvg__deleteShaderP11GLNVGshader(ptr noundef %0) #4 {
  %2 = alloca ptr, align 8
  store ptr %0, ptr %2, align 8
  %3 = load ptr, ptr %2, align 8
  %4 = getelementptr inbounds %struct.GLNVGshader, ptr %3, i32 0, i32 0
  %5 = load i32, ptr %4, align 4
  %6 = icmp ne i32 %5, 0
  br i1 %6, label %7, label %11

7:                                                ; preds = %1
  %8 = load ptr, ptr %2, align 8
  %9 = getelementptr inbounds %struct.GLNVGshader, ptr %8, i32 0, i32 0
  %10 = load i32, ptr %9, align 4
  call void @glDeleteProgram(i32 noundef %10)
  br label %11

11:                                               ; preds = %7, %1
  %12 = load ptr, ptr %2, align 8
  %13 = getelementptr inbounds %struct.GLNVGshader, ptr %12, i32 0, i32 2
  %14 = load i32, ptr %13, align 4
  %15 = icmp ne i32 %14, 0
  br i1 %15, label %16, label %20

16:                                               ; preds = %11
  %17 = load ptr, ptr %2, align 8
  %18 = getelementptr inbounds %struct.GLNVGshader, ptr %17, i32 0, i32 2
  %19 = load i32, ptr %18, align 4
  call void @glDeleteShader(i32 noundef %19)
  br label %20

20:                                               ; preds = %16, %11
  %21 = load ptr, ptr %2, align 8
  %22 = getelementptr inbounds %struct.GLNVGshader, ptr %21, i32 0, i32 1
  %23 = load i32, ptr %22, align 4
  %24 = icmp ne i32 %23, 0
  br i1 %24, label %25, label %29

25:                                               ; preds = %20
  %26 = load ptr, ptr %2, align 8
  %27 = getelementptr inbounds %struct.GLNVGshader, ptr %26, i32 0, i32 1
  %28 = load i32, ptr %27, align 4
  call void @glDeleteShader(i32 noundef %28)
  br label %29

29:                                               ; preds = %25, %20
  ret void
}

; Function Attrs: mustprogress uwtable
define internal void @_ZL19glnvg__renderDeletePv(ptr noundef %0) #4 {
  %2 = alloca ptr, align 8
  %3 = alloca ptr, align 8
  %4 = alloca i32, align 4
  store ptr %0, ptr %2, align 8
  %5 = load ptr, ptr %2, align 8
  store ptr %5, ptr %3, align 8
  %6 = load ptr, ptr %3, align 8
  %7 = icmp eq ptr %6, null
  br i1 %7, label %8, label %9

8:                                                ; preds = %1
  br label %92

9:                                                ; preds = %1
  %10 = load ptr, ptr %3, align 8
  %11 = getelementptr inbounds %struct.GLNVGcontext, ptr %10, i32 0, i32 0
  call void @_ZL19glnvg__deleteShaderP11GLNVGshader(ptr noundef %11)
  %12 = load ptr, ptr %3, align 8
  %13 = getelementptr inbounds %struct.GLNVGcontext, ptr %12, i32 0, i32 8
  %14 = load i32, ptr %13, align 4
  %15 = icmp ne i32 %14, 0
  br i1 %15, label %16, label %19

16:                                               ; preds = %9
  %17 = load ptr, ptr %3, align 8
  %18 = getelementptr inbounds %struct.GLNVGcontext, ptr %17, i32 0, i32 8
  call void @glDeleteBuffers(i32 noundef 1, ptr noundef %18)
  br label %19

19:                                               ; preds = %16, %9
  %20 = load ptr, ptr %3, align 8
  %21 = getelementptr inbounds %struct.GLNVGcontext, ptr %20, i32 0, i32 7
  %22 = load i32, ptr %21, align 8
  %23 = icmp ne i32 %22, 0
  br i1 %23, label %24, label %27

24:                                               ; preds = %19
  %25 = load ptr, ptr %3, align 8
  %26 = getelementptr inbounds %struct.GLNVGcontext, ptr %25, i32 0, i32 7
  call void @glDeleteVertexArrays(i32 noundef 1, ptr noundef %26)
  br label %27

27:                                               ; preds = %24, %19
  %28 = load ptr, ptr %3, align 8
  %29 = getelementptr inbounds %struct.GLNVGcontext, ptr %28, i32 0, i32 6
  %30 = load i32, ptr %29, align 4
  %31 = icmp ne i32 %30, 0
  br i1 %31, label %32, label %35

32:                                               ; preds = %27
  %33 = load ptr, ptr %3, align 8
  %34 = getelementptr inbounds %struct.GLNVGcontext, ptr %33, i32 0, i32 6
  call void @glDeleteBuffers(i32 noundef 1, ptr noundef %34)
  br label %35

35:                                               ; preds = %32, %27
  store i32 0, ptr %4, align 4
  br label %36

36:                                               ; preds = %72, %35
  %37 = load i32, ptr %4, align 4
  %38 = load ptr, ptr %3, align 8
  %39 = getelementptr inbounds %struct.GLNVGcontext, ptr %38, i32 0, i32 3
  %40 = load i32, ptr %39, align 8
  %41 = icmp slt i32 %37, %40
  br i1 %41, label %42, label %75

42:                                               ; preds = %36
  %43 = load ptr, ptr %3, align 8
  %44 = getelementptr inbounds %struct.GLNVGcontext, ptr %43, i32 0, i32 1
  %45 = load ptr, ptr %44, align 8
  %46 = load i32, ptr %4, align 4
  %47 = sext i32 %46 to i64
  %48 = getelementptr inbounds %struct.GLNVGtexture, ptr %45, i64 %47
  %49 = getelementptr inbounds %struct.GLNVGtexture, ptr %48, i32 0, i32 1
  %50 = load i32, ptr %49, align 4
  %51 = icmp ne i32 %50, 0
  br i1 %51, label %52, label %71

52:                                               ; preds = %42
  %53 = load ptr, ptr %3, align 8
  %54 = getelementptr inbounds %struct.GLNVGcontext, ptr %53, i32 0, i32 1
  %55 = load ptr, ptr %54, align 8
  %56 = load i32, ptr %4, align 4
  %57 = sext i32 %56 to i64
  %58 = getelementptr inbounds %struct.GLNVGtexture, ptr %55, i64 %57
  %59 = getelementptr inbounds %struct.GLNVGtexture, ptr %58, i32 0, i32 5
  %60 = load i32, ptr %59, align 4
  %61 = and i32 %60, 65536
  %62 = icmp eq i32 %61, 0
  br i1 %62, label %63, label %71

63:                                               ; preds = %52
  %64 = load ptr, ptr %3, align 8
  %65 = getelementptr inbounds %struct.GLNVGcontext, ptr %64, i32 0, i32 1
  %66 = load ptr, ptr %65, align 8
  %67 = load i32, ptr %4, align 4
  %68 = sext i32 %67 to i64
  %69 = getelementptr inbounds %struct.GLNVGtexture, ptr %66, i64 %68
  %70 = getelementptr inbounds %struct.GLNVGtexture, ptr %69, i32 0, i32 1
  call void @glDeleteTextures(i32 noundef 1, ptr noundef %70)
  br label %71

71:                                               ; preds = %63, %52, %42
  br label %72

72:                                               ; preds = %71
  %73 = load i32, ptr %4, align 4
  %74 = add nsw i32 %73, 1
  store i32 %74, ptr %4, align 4
  br label %36, !llvm.loop !9

75:                                               ; preds = %36
  %76 = load ptr, ptr %3, align 8
  %77 = getelementptr inbounds %struct.GLNVGcontext, ptr %76, i32 0, i32 1
  %78 = load ptr, ptr %77, align 8
  call void @free(ptr noundef %78) #3
  %79 = load ptr, ptr %3, align 8
  %80 = getelementptr inbounds %struct.GLNVGcontext, ptr %79, i32 0, i32 14
  %81 = load ptr, ptr %80, align 8
  call void @free(ptr noundef %81) #3
  %82 = load ptr, ptr %3, align 8
  %83 = getelementptr inbounds %struct.GLNVGcontext, ptr %82, i32 0, i32 17
  %84 = load ptr, ptr %83, align 8
  call void @free(ptr noundef %84) #3
  %85 = load ptr, ptr %3, align 8
  %86 = getelementptr inbounds %struct.GLNVGcontext, ptr %85, i32 0, i32 20
  %87 = load ptr, ptr %86, align 8
  call void @free(ptr noundef %87) #3
  %88 = load ptr, ptr %3, align 8
  %89 = getelementptr inbounds %struct.GLNVGcontext, ptr %88, i32 0, i32 11
  %90 = load ptr, ptr %89, align 8
  call void @free(ptr noundef %90) #3
  %91 = load ptr, ptr %3, align 8
  call void @free(ptr noundef %91) #3
  br label %92

92:                                               ; preds = %75, %8
  ret void
}