; Function Attrs: mustprogress uwtable
define internal void @_ZL19glnvg__renderDeletePv(ptr noundef %0) #3 {
  %2 = icmp eq ptr %0, null
  br i1 %2, label %56, label %3

3:                                                ; preds = %1
  %4 = load i32, ptr %0, align 4
  %.not.i = icmp eq i32 %4, 0
  br i1 %.not.i, label %6, label %5

5:                                                ; preds = %3
  tail call void @glDeleteProgram(i32 noundef %4)
  br label %6

6:                                                ; preds = %5, %3
  %7 = getelementptr inbounds i8, ptr %0, i64 8
  %8 = load i32, ptr %7, align 4
  %.not8.i = icmp eq i32 %8, 0
  br i1 %.not8.i, label %10, label %9

9:                                                ; preds = %6
  tail call void @glDeleteShader(i32 noundef %8)
  br label %10

10:                                               ; preds = %9, %6
  %11 = getelementptr inbounds i8, ptr %0, i64 4
  %12 = load i32, ptr %11, align 4
  %.not9.i = icmp eq i32 %12, 0
  br i1 %.not9.i, label %_ZL19glnvg__deleteShaderP11GLNVGshader.exit, label %13

13:                                               ; preds = %10
  tail call void @glDeleteShader(i32 noundef %12)
  br label %_ZL19glnvg__deleteShaderP11GLNVGshader.exit

_ZL19glnvg__deleteShaderP11GLNVGshader.exit:      ; preds = %10, %13
  %14 = getelementptr inbounds i8, ptr %0, i64 60
  %15 = load i32, ptr %14, align 4
  %.not = icmp eq i32 %15, 0
  br i1 %.not, label %17, label %16

16:                                               ; preds = %_ZL19glnvg__deleteShaderP11GLNVGshader.exit
  tail call void @glDeleteBuffers(i32 noundef 1, ptr noundef nonnull %14)
  br label %17

17:                                               ; preds = %16, %_ZL19glnvg__deleteShaderP11GLNVGshader.exit
  %18 = getelementptr inbounds i8, ptr %0, i64 56
  %19 = load i32, ptr %18, align 8
  %.not24 = icmp eq i32 %19, 0
  br i1 %.not24, label %21, label %20

20:                                               ; preds = %17
  tail call void @glDeleteVertexArrays(i32 noundef 1, ptr noundef nonnull %18)
  br label %21

21:                                               ; preds = %20, %17
  %22 = getelementptr inbounds i8, ptr %0, i64 52
  %23 = load i32, ptr %22, align 4
  %.not25 = icmp eq i32 %23, 0
  br i1 %.not25, label %25, label %24

24:                                               ; preds = %21
  tail call void @glDeleteBuffers(i32 noundef 1, ptr noundef nonnull %22)
  br label %25

25:                                               ; preds = %24, %21
  %26 = getelementptr inbounds i8, ptr %0, i64 40
  %27 = load i32, ptr %26, align 8
  %28 = icmp sgt i32 %27, 0
  br i1 %28, label %.lr.ph, label %._crit_edge

.lr.ph:                                           ; preds = %25
  %29 = getelementptr inbounds i8, ptr %0, i64 24
  br label %30

30:                                               ; preds = %.lr.ph, %42
  %31 = phi i32 [ %27, %.lr.ph ], [ %43, %42 ]
  %indvars.iv = phi i64 [ 0, %.lr.ph ], [ %indvars.iv.next, %42 ]
  %32 = load ptr, ptr %29, align 8
  %33 = getelementptr inbounds %struct.GLNVGtexture, ptr %32, i64 %indvars.iv
  %34 = getelementptr inbounds i8, ptr %33, i64 4
  %35 = load i32, ptr %34, align 4
  %.not26 = icmp eq i32 %35, 0
  br i1 %.not26, label %42, label %36

36:                                               ; preds = %30
  %37 = getelementptr inbounds i8, ptr %33, i64 20
  %38 = load i32, ptr %37, align 4
  %39 = and i32 %38, 65536
  %40 = icmp eq i32 %39, 0
  br i1 %40, label %41, label %42

41:                                               ; preds = %36
  tail call void @glDeleteTextures(i32 noundef 1, ptr noundef nonnull %34)
  %.pre = load i32, ptr %26, align 8
  br label %42

42:                                               ; preds = %30, %36, %41
  %43 = phi i32 [ %31, %30 ], [ %31, %36 ], [ %.pre, %41 ]
  %indvars.iv.next = add nuw nsw i64 %indvars.iv, 1
  %44 = sext i32 %43 to i64
  %45 = icmp slt i64 %indvars.iv.next, %44
  br i1 %45, label %30, label %._crit_edge, !llvm.loop !20

._crit_edge:                                      ; preds = %42, %25
  %46 = getelementptr inbounds i8, ptr %0, i64 24
  %47 = load ptr, ptr %46, align 8
  tail call void @free(ptr noundef %47) #30
  %48 = getelementptr inbounds i8, ptr %0, i64 88
  %49 = load ptr, ptr %48, align 8
  tail call void @free(ptr noundef %49) #30
  %50 = getelementptr inbounds i8, ptr %0, i64 104
  %51 = load ptr, ptr %50, align 8
  tail call void @free(ptr noundef %51) #30
  %52 = getelementptr inbounds i8, ptr %0, i64 120
  %53 = load ptr, ptr %52, align 8
  tail call void @free(ptr noundef %53) #30
  %54 = getelementptr inbounds i8, ptr %0, i64 72
  %55 = load ptr, ptr %54, align 8
  tail call void @free(ptr noundef %55) #30
  tail call void @free(ptr noundef nonnull %0) #30
  br label %56

56:                                               ; preds = %1, %._crit_edge
  ret void
}